; ModuleID = 'source-C-CXX/32/3073.c'
source_filename = "source-C-CXX/32/3073.c"
target datalayout = "e-m:e-p270:32:32-p271:32:32-p272:64:64-i64:64-f80:128-n8:16:32:64-S128"
target triple = "x86_64-pc-linux-gnu"

@.str = private unnamed_addr constant [3 x i8] c"%d\00", align 1
@.str.1 = private unnamed_addr constant [3 x i8] c"%s\00", align 1

; Function Attrs: nofree nounwind sspstrong uwtable
define dso_local i32 @main() local_unnamed_addr #0 {
  %1 = alloca i32, align 4
  %2 = alloca [256 x i8], align 16
  %3 = bitcast i32* %1 to i8*
  call void @llvm.lifetime.start.p0i8(i64 4, i8* nonnull %3) #5
  %4 = getelementptr inbounds [256 x i8], [256 x i8]* %2, i64 0, i64 0
  call void @llvm.lifetime.start.p0i8(i64 256, i8* nonnull %4) #5
  %5 = call i32 (i8*, ...) @__isoc99_scanf(i8* getelementptr inbounds ([3 x i8], [3 x i8]* @.str, i64 0, i64 0), i32* nonnull %1)
  %6 = load i32, i32* %1, align 4, !tbaa !5
  %7 = icmp sgt i32 %6, 0
  br i1 %7, label %8, label %35

8:                                                ; preds = %0, %30
  %9 = phi i32 [ %32, %30 ], [ 0, %0 ]
  %10 = call i32 (i8*, ...) @__isoc99_scanf(i8* getelementptr inbounds ([3 x i8], [3 x i8]* @.str.1, i64 0, i64 0), i8* nonnull %4)
  %11 = call i64 @strlen(i8* noundef nonnull %4) #6
  %12 = trunc i64 %11 to i32
  %13 = icmp sgt i32 %12, 0
  br i1 %13, label %14, label %30

14:                                               ; preds = %8
  %15 = and i64 %11, 4294967295
  br label %16

16:                                               ; preds = %14, %27
  %17 = phi i64 [ 0, %14 ], [ %28, %27 ]
  %18 = getelementptr inbounds [256 x i8], [256 x i8]* %2, i64 0, i64 %17
  %19 = load i8, i8* %18, align 1, !tbaa !9
  switch i8 %19, label %27 [
    i8 65, label %23
    i8 84, label %20
    i8 67, label %21
    i8 71, label %22
  ]

20:                                               ; preds = %16
  br label %23

21:                                               ; preds = %16
  br label %23

22:                                               ; preds = %16
  br label %23

23:                                               ; preds = %16, %20, %21, %22
  %24 = phi i8 [ 67, %22 ], [ 71, %21 ], [ 65, %20 ], [ 84, %16 ]
  %25 = phi i32 [ 67, %22 ], [ 71, %21 ], [ 65, %20 ], [ 84, %16 ]
  store i8 %24, i8* %18, align 1, !tbaa !9
  %26 = call i32 @putchar(i32 %25)
  br label %27

27:                                               ; preds = %23, %16
  %28 = add nuw nsw i64 %17, 1
  %29 = icmp eq i64 %28, %15
  br i1 %29, label %30, label %16, !llvm.loop !10

30:                                               ; preds = %27, %8
  %31 = call i32 @putchar(i32 10)
  %32 = add nuw nsw i32 %9, 1
  %33 = load i32, i32* %1, align 4, !tbaa !5
  %34 = icmp slt i32 %32, %33
  br i1 %34, label %8, label %35, !llvm.loop !12

35:                                               ; preds = %30, %0
  call void @llvm.lifetime.end.p0i8(i64 256, i8* nonnull %4) #5
  call void @llvm.lifetime.end.p0i8(i64 4, i8* nonnull %3) #5
  ret i32 0
}

; Function Attrs: argmemonly mustprogress nofree nosync nounwind willreturn
declare void @llvm.lifetime.start.p0i8(i64 immarg, i8* nocapture) #1

; Function Attrs: nofree nounwind
declare noundef i32 @__isoc99_scanf(i8* nocapture noundef readonly, ...) local_unnamed_addr #2

; Function Attrs: argmemonly mustprogress nofree nounwind readonly willreturn
declare i64 @strlen(i8* nocapture) local_unnamed_addr #3

; Function Attrs: argmemonly mustprogress nofree nosync nounwind willreturn
declare void @llvm.lifetime.end.p0i8(i64 immarg, i8* nocapture) #1

; Function Attrs: nofree nounwind
declare noundef i32 @putchar(i32 noundef) local_unnamed_addr #4


!llvm.module.flags = !{!0, !1, !2, !3}
!llvm.ident = !{!4}

!0 = !{i32 1, !"wchar_size", i32 4}
!1 = !{i32 7, !"PIC Level", i32 2}
!2 = !{i32 7, !"PIE Level", i32 2}
!3 = !{i32 7, !"uwtable", i32 1}
!4 = !{!"clang version 13.0.0"}
!5 = !{!6, !6, i64 0}
!6 = !{!"int", !7, i64 0}
!7 = !{!"omnipotent char", !8, i64 0}
!8 = !{!"Simple C/C++ TBAA"}
!9 = !{!7, !7, i64 0}
!10 = distinct !{!10, !11}
!11 = !{!"llvm.loop.mustprogress"}
!12 = distinct !{!12, !11}
